target datalayout = "e-m:e-p270:32:32-p271:32:32-p272:64:64-i64:64-i128:128-f80:128-n8:16:32:64-S128"
target triple = "x86_64-pc-linux-gnu"

%struct.Dar_Lib_t_ = type { ptr, i32, i32, [222 x i32], [222 x ptr], ptr, i32, ptr, [222 x ptr], ptr, [222 x ptr], ptr, [222 x ptr], [222 x i32], [222 x ptr], ptr, i32, i32, i32, [222 x i32], [222 x ptr], ptr, i32, [222 x i32], [222 x ptr], ptr, i32, ptr, i32, ptr, ptr, ptr, ptr, ptr }

; Function Attrs: nounwind uwtable
define void @Dar_LibFree(ptr noundef %0) #0 {
  %2 = alloca ptr, align 8
  store ptr %0, ptr %2, align 8
  %3 = load ptr, ptr %2, align 8
  %4 = getelementptr inbounds %struct.Dar_Lib_t_, ptr %3, i32 0, i32 0
  %5 = load ptr, ptr %4, align 8
  %6 = icmp ne ptr %5, null
  br i1 %6, label %7, label %13

7:                                                ; preds = %1
  %8 = load ptr, ptr %2, align 8
  %9 = getelementptr inbounds %struct.Dar_Lib_t_, ptr %8, i32 0, i32 0
  %10 = load ptr, ptr %9, align 8
  call void @free(ptr noundef %10) #9
  %11 = load ptr, ptr %2, align 8
  %12 = getelementptr inbounds %struct.Dar_Lib_t_, ptr %11, i32 0, i32 0
  store ptr null, ptr %12, align 8
  br label %14

13:                                               ; preds = %1
  br label %14

14:                                               ; preds = %13, %7
  %15 = load ptr, ptr %2, align 8
  %16 = getelementptr inbounds %struct.Dar_Lib_t_, ptr %15, i32 0, i32 27
  %17 = load ptr, ptr %16, align 8
  %18 = icmp ne ptr %17, null
  br i1 %18, label %19, label %25

19:                                               ; preds = %14
  %20 = load ptr, ptr %2, align 8
  %21 = getelementptr inbounds %struct.Dar_Lib_t_, ptr %20, i32 0, i32 27
  %22 = load ptr, ptr %21, align 8
  call void @free(ptr noundef %22) #9
  %23 = load ptr, ptr %2, align 8
  %24 = getelementptr inbounds %struct.Dar_Lib_t_, ptr %23, i32 0, i32 27
  store ptr null, ptr %24, align 8
  br label %26

25:                                               ; preds = %14
  br label %26

26:                                               ; preds = %25, %19
  %27 = load ptr, ptr %2, align 8
  %28 = getelementptr inbounds %struct.Dar_Lib_t_, ptr %27, i32 0, i32 15
  %29 = load ptr, ptr %28, align 8
  %30 = icmp ne ptr %29, null
  br i1 %30, label %31, label %37

31:                                               ; preds = %26
  %32 = load ptr, ptr %2, align 8
  %33 = getelementptr inbounds %struct.Dar_Lib_t_, ptr %32, i32 0, i32 15
  %34 = load ptr, ptr %33, align 8
  call void @free(ptr noundef %34) #9
  %35 = load ptr, ptr %2, align 8
  %36 = getelementptr inbounds %struct.Dar_Lib_t_, ptr %35, i32 0, i32 15
  store ptr null, ptr %36, align 8
  br label %38

37:                                               ; preds = %26
  br label %38

38:                                               ; preds = %37, %31
  %39 = load ptr, ptr %2, align 8
  %40 = getelementptr inbounds %struct.Dar_Lib_t_, ptr %39, i32 0, i32 21
  %41 = load ptr, ptr %40, align 8
  %42 = icmp ne ptr %41, null
  br i1 %42, label %43, label %49

43:                                               ; preds = %38
  %44 = load ptr, ptr %2, align 8
  %45 = getelementptr inbounds %struct.Dar_Lib_t_, ptr %44, i32 0, i32 21
  %46 = load ptr, ptr %45, align 8
  call void @free(ptr noundef %46) #9
  %47 = load ptr, ptr %2, align 8
  %48 = getelementptr inbounds %struct.Dar_Lib_t_, ptr %47, i32 0, i32 21
  store ptr null, ptr %48, align 8
  br label %50

49:                                               ; preds = %38
  br label %50

50:                                               ; preds = %49, %43
  %51 = load ptr, ptr %2, align 8
  %52 = getelementptr inbounds %struct.Dar_Lib_t_, ptr %51, i32 0, i32 5
  %53 = load ptr, ptr %52, align 8
  %54 = icmp ne ptr %53, null
  br i1 %54, label %55, label %61

55:                                               ; preds = %50
  %56 = load ptr, ptr %2, align 8
  %57 = getelementptr inbounds %struct.Dar_Lib_t_, ptr %56, i32 0, i32 5
  %58 = load ptr, ptr %57, align 8
  call void @free(ptr noundef %58) #9
  %59 = load ptr, ptr %2, align 8
  %60 = getelementptr inbounds %struct.Dar_Lib_t_, ptr %59, i32 0, i32 5
  store ptr null, ptr %60, align 8
  br label %62

61:                                               ; preds = %50
  br label %62

62:                                               ; preds = %61, %55
  %63 = load ptr, ptr %2, align 8
  %64 = getelementptr inbounds %struct.Dar_Lib_t_, ptr %63, i32 0, i32 25
  %65 = load ptr, ptr %64, align 8
  %66 = icmp ne ptr %65, null
  br i1 %66, label %67, label %73

67:                                               ; preds = %62
  %68 = load ptr, ptr %2, align 8
  %69 = getelementptr inbounds %struct.Dar_Lib_t_, ptr %68, i32 0, i32 25
  %70 = load ptr, ptr %69, align 8
  call void @free(ptr noundef %70) #9
  %71 = load ptr, ptr %2, align 8
  %72 = getelementptr inbounds %struct.Dar_Lib_t_, ptr %71, i32 0, i32 25
  store ptr null, ptr %72, align 8
  br label %74

73:                                               ; preds = %62
  br label %74

74:                                               ; preds = %73, %67
  %75 = load ptr, ptr %2, align 8
  %76 = getelementptr inbounds %struct.Dar_Lib_t_, ptr %75, i32 0, i32 7
  %77 = load ptr, ptr %76, align 8
  %78 = icmp ne ptr %77, null
  br i1 %78, label %79, label %85

79:                                               ; preds = %74
  %80 = load ptr, ptr %2, align 8
  %81 = getelementptr inbounds %struct.Dar_Lib_t_, ptr %80, i32 0, i32 7
  %82 = load ptr, ptr %81, align 8
  call void @free(ptr noundef %82) #9
  %83 = load ptr, ptr %2, align 8
  %84 = getelementptr inbounds %struct.Dar_Lib_t_, ptr %83, i32 0, i32 7
  store ptr null, ptr %84, align 8
  br label %86

85:                                               ; preds = %74
  br label %86

86:                                               ; preds = %85, %79
  %87 = load ptr, ptr %2, align 8
  %88 = getelementptr inbounds %struct.Dar_Lib_t_, ptr %87, i32 0, i32 9
  %89 = load ptr, ptr %88, align 8
  %90 = icmp ne ptr %89, null
  br i1 %90, label %91, label %97

91:                                               ; preds = %86
  %92 = load ptr, ptr %2, align 8
  %93 = getelementptr inbounds %struct.Dar_Lib_t_, ptr %92, i32 0, i32 9
  %94 = load ptr, ptr %93, align 8
  call void @free(ptr noundef %94) #9
  %95 = load ptr, ptr %2, align 8
  %96 = getelementptr inbounds %struct.Dar_Lib_t_, ptr %95, i32 0, i32 9
  store ptr null, ptr %96, align 8
  br label %98

97:                                               ; preds = %86
  br label %98

98:                                               ; preds = %97, %91
  %99 = load ptr, ptr %2, align 8
  %100 = getelementptr inbounds %struct.Dar_Lib_t_, ptr %99, i32 0, i32 11
  %101 = load ptr, ptr %100, align 8
  %102 = icmp ne ptr %101, null
  br i1 %102, label %103, label %109

103:                                              ; preds = %98
  %104 = load ptr, ptr %2, align 8
  %105 = getelementptr inbounds %struct.Dar_Lib_t_, ptr %104, i32 0, i32 11
  %106 = load ptr, ptr %105, align 8
  call void @free(ptr noundef %106) #9
  %107 = load ptr, ptr %2, align 8
  %108 = getelementptr inbounds %struct.Dar_Lib_t_, ptr %107, i32 0, i32 11
  store ptr null, ptr %108, align 8
  br label %110

109:                                              ; preds = %98
  br label %110

110:                                              ; preds = %109, %103
  %111 = load ptr, ptr %2, align 8
  %112 = getelementptr inbounds %struct.Dar_Lib_t_, ptr %111, i32 0, i32 29
  %113 = load ptr, ptr %112, align 8
  %114 = icmp ne ptr %113, null
  br i1 %114, label %115, label %121

115:                                              ; preds = %110
  %116 = load ptr, ptr %2, align 8
  %117 = getelementptr inbounds %struct.Dar_Lib_t_, ptr %116, i32 0, i32 29
  %118 = load ptr, ptr %117, align 8
  call void @free(ptr noundef %118) #9
  %119 = load ptr, ptr %2, align 8
  %120 = getelementptr inbounds %struct.Dar_Lib_t_, ptr %119, i32 0, i32 29
  store ptr null, ptr %120, align 8
  br label %122

121:                                              ; preds = %110
  br label %122

122:                                              ; preds = %121, %115
  %123 = load ptr, ptr %2, align 8
  %124 = getelementptr inbounds %struct.Dar_Lib_t_, ptr %123, i32 0, i32 30
  %125 = load ptr, ptr %124, align 8
  %126 = icmp ne ptr %125, null
  br i1 %126, label %127, label %133

127:                                              ; preds = %122
  %128 = load ptr, ptr %2, align 8
  %129 = getelementptr inbounds %struct.Dar_Lib_t_, ptr %128, i32 0, i32 30
  %130 = load ptr, ptr %129, align 8
  call void @free(ptr noundef %130) #9
  %131 = load ptr, ptr %2, align 8
  %132 = getelementptr inbounds %struct.Dar_Lib_t_, ptr %131, i32 0, i32 30
  store ptr null, ptr %132, align 8
  br label %134

133:                                              ; preds = %122
  br label %134

134:                                              ; preds = %133, %127
  %135 = load ptr, ptr %2, align 8
  %136 = getelementptr inbounds %struct.Dar_Lib_t_, ptr %135, i32 0, i32 31
  %137 = load ptr, ptr %136, align 8
  %138 = icmp ne ptr %137, null
  br i1 %138, label %139, label %145

139:                                              ; preds = %134
  %140 = load ptr, ptr %2, align 8
  %141 = getelementptr inbounds %struct.Dar_Lib_t_, ptr %140, i32 0, i32 31
  %142 = load ptr, ptr %141, align 8
  call void @free(ptr noundef %142) #9
  %143 = load ptr, ptr %2, align 8
  %144 = getelementptr inbounds %struct.Dar_Lib_t_, ptr %143, i32 0, i32 31
  store ptr null, ptr %144, align 8
  br label %146

145:                                              ; preds = %134
  br label %146

146:                                              ; preds = %145, %139
  %147 = load ptr, ptr %2, align 8
  %148 = getelementptr inbounds %struct.Dar_Lib_t_, ptr %147, i32 0, i32 32
  %149 = load ptr, ptr %148, align 8
  %150 = icmp ne ptr %149, null
  br i1 %150, label %151, label %157

151:                                              ; preds = %146
  %152 = load ptr, ptr %2, align 8
  %153 = getelementptr inbounds %struct.Dar_Lib_t_, ptr %152, i32 0, i32 32
  %154 = load ptr, ptr %153, align 8
  call void @free(ptr noundef %154) #9
  %155 = load ptr, ptr %2, align 8
  %156 = getelementptr inbounds %struct.Dar_Lib_t_, ptr %155, i32 0, i32 32
  store ptr null, ptr %156, align 8
  br label %158

157:                                              ; preds = %146
  br label %158

158:                                              ; preds = %157, %151
  %159 = load ptr, ptr %2, align 8
  %160 = getelementptr inbounds %struct.Dar_Lib_t_, ptr %159, i32 0, i32 33
  %161 = load ptr, ptr %160, align 8
  %162 = icmp ne ptr %161, null
  br i1 %162, label %163, label %169

163:                                              ; preds = %158
  %164 = load ptr, ptr %2, align 8
  %165 = getelementptr inbounds %struct.Dar_Lib_t_, ptr %164, i32 0, i32 33
  %166 = load ptr, ptr %165, align 8
  call void @free(ptr noundef %166) #9
  %167 = load ptr, ptr %2, align 8
  %168 = getelementptr inbounds %struct.Dar_Lib_t_, ptr %167, i32 0, i32 33
  store ptr null, ptr %168, align 8
  br label %170

169:                                              ; preds = %158
  br label %170

170:                                              ; preds = %169, %163
  %171 = load ptr, ptr %2, align 8
  %172 = icmp ne ptr %171, null
  br i1 %172, label %173, label %175

173:                                              ; preds = %170
  %174 = load ptr, ptr %2, align 8
  call void @free(ptr noundef %174) #9
  store ptr null, ptr %2, align 8
  br label %176

175:                                              ; preds = %170
  br label %176

176:                                              ; preds = %175, %173
  ret void
}