; Function Attrs: mustprogress nounwind willreturn uwtable
define void @Dar_LibFree(ptr noundef captures(none) %0) local_unnamed_addr #4 {
  %2 = load ptr, ptr %0, align 8
  %.not = icmp eq ptr %2, null
  br i1 %.not, label %4, label %3

3:                                                ; preds = %1
  tail call void @free(ptr noundef nonnull %2) #20
  store ptr null, ptr %0, align 8
  br label %4

4:                                                ; preds = %1, %3
  %5 = getelementptr inbounds nuw i8, ptr %0, i64 16096
  %6 = load ptr, ptr %5, align 8
  %.not57 = icmp eq ptr %6, null
  br i1 %.not57, label %8, label %7

7:                                                ; preds = %4
  tail call void @free(ptr noundef nonnull %6) #20
  store ptr null, ptr %5, align 8
  br label %8

8:                                                ; preds = %4, %7
  %9 = getelementptr inbounds nuw i8, ptr %0, i64 10712
  %10 = load ptr, ptr %9, align 8
  %.not58 = icmp eq ptr %10, null
  br i1 %.not58, label %12, label %11

11:                                               ; preds = %8
  tail call void @free(ptr noundef nonnull %10) #20
  store ptr null, ptr %9, align 8
  br label %12

12:                                               ; preds = %8, %11
  %13 = getelementptr inbounds nuw i8, ptr %0, i64 13400
  %14 = load ptr, ptr %13, align 8
  %.not59 = icmp eq ptr %14, null
  br i1 %.not59, label %16, label %15

15:                                               ; preds = %12
  tail call void @free(ptr noundef nonnull %14) #20
  store ptr null, ptr %13, align 8
  br label %16

16:                                               ; preds = %12, %15
  %17 = getelementptr inbounds nuw i8, ptr %0, i64 2680
  %18 = load ptr, ptr %17, align 8
  %.not60 = icmp eq ptr %18, null
  br i1 %.not60, label %20, label %19

19:                                               ; preds = %16
  tail call void @free(ptr noundef nonnull %18) #20
  store ptr null, ptr %17, align 8
  br label %20

20:                                               ; preds = %16, %19
  %21 = getelementptr inbounds nuw i8, ptr %0, i64 16080
  %22 = load ptr, ptr %21, align 8
  %.not61 = icmp eq ptr %22, null
  br i1 %.not61, label %24, label %23

23:                                               ; preds = %20
  tail call void @free(ptr noundef nonnull %22) #20
  store ptr null, ptr %21, align 8
  br label %24

24:                                               ; preds = %20, %23
  %25 = getelementptr inbounds nuw i8, ptr %0, i64 2696
  %26 = load ptr, ptr %25, align 8
  %.not62 = icmp eq ptr %26, null
  br i1 %.not62, label %28, label %27

27:                                               ; preds = %24
  tail call void @free(ptr noundef nonnull %26) #20
  store ptr null, ptr %25, align 8
  br label %28

28:                                               ; preds = %24, %27
  %29 = getelementptr inbounds nuw i8, ptr %0, i64 4480
  %30 = load ptr, ptr %29, align 8
  %.not63 = icmp eq ptr %30, null
  br i1 %.not63, label %32, label %31

31:                                               ; preds = %28
  tail call void @free(ptr noundef nonnull %30) #20
  store ptr null, ptr %29, align 8
  br label %32

32:                                               ; preds = %28, %31
  %33 = getelementptr inbounds nuw i8, ptr %0, i64 6264
  %34 = load ptr, ptr %33, align 8
  %.not64 = icmp eq ptr %34, null
  br i1 %.not64, label %36, label %35

35:                                               ; preds = %32
  tail call void @free(ptr noundef nonnull %34) #20
  store ptr null, ptr %33, align 8
  br label %36

36:                                               ; preds = %32, %35
  %37 = getelementptr inbounds nuw i8, ptr %0, i64 16112
  %38 = load ptr, ptr %37, align 8
  %.not65 = icmp eq ptr %38, null
  br i1 %.not65, label %40, label %39

39:                                               ; preds = %36
  tail call void @free(ptr noundef nonnull %38) #20
  store ptr null, ptr %37, align 8
  br label %40

40:                                               ; preds = %36, %39
  %41 = getelementptr inbounds nuw i8, ptr %0, i64 16120
  %42 = load ptr, ptr %41, align 8
  %.not66 = icmp eq ptr %42, null
  br i1 %.not66, label %44, label %43

43:                                               ; preds = %40
  tail call void @free(ptr noundef nonnull %42) #20
  store ptr null, ptr %41, align 8
  br label %44

44:                                               ; preds = %40, %43
  %45 = getelementptr inbounds nuw i8, ptr %0, i64 16128
  %46 = load ptr, ptr %45, align 8
  %.not67 = icmp eq ptr %46, null
  br i1 %.not67, label %48, label %47

47:                                               ; preds = %44
  tail call void @free(ptr noundef nonnull %46) #20
  store ptr null, ptr %45, align 8
  br label %48

48:                                               ; preds = %44, %47
  %49 = getelementptr inbounds nuw i8, ptr %0, i64 16136
  %50 = load ptr, ptr %49, align 8
  %.not68 = icmp eq ptr %50, null
  br i1 %.not68, label %52, label %51

51:                                               ; preds = %48
  tail call void @free(ptr noundef nonnull %50) #20
  store ptr null, ptr %49, align 8
  br label %52

52:                                               ; preds = %48, %51
  %53 = getelementptr inbounds nuw i8, ptr %0, i64 16144
  %54 = load ptr, ptr %53, align 8
  %.not69 = icmp eq ptr %54, null
  br i1 %.not69, label %56, label %55

55:                                               ; preds = %52
  tail call void @free(ptr noundef nonnull %54) #20
  br label %56

56:                                               ; preds = %55, %52
  tail call void @free(ptr noundef nonnull %0) #20
  ret void
}